target datalayout = "e-m:e-p270:32:32-p271:32:32-p272:64:64-i64:64-i128:128-f80:128-n8:16:32:64-S128"
target triple = "x86_64-pc-linux-gnu"

%"class.std::ios_base" = type { ptr, i64, i64, i32, i32, i32, ptr, %"struct.std::ios_base::_Words", [8 x %"struct.std::ios_base::_Words"], i32, ptr, %"class.std::locale" }
%"struct.std::ios_base::_Words" = type { ptr, i64 }
%"class.std::locale" = type { ptr }

@.str.151 = private unnamed_addr constant [2 x i8] c"'\00", align 1
@.str.190 = private unnamed_addr constant [3 x i8] c"\\0\00", align 1
@.str.336 = private unnamed_addr constant [3 x i8] c"\\b\00", align 1
@.str.337 = private unnamed_addr constant [3 x i8] c"\\t\00", align 1
@.str.338 = private unnamed_addr constant [3 x i8] c"\\n\00", align 1
@.str.339 = private unnamed_addr constant [3 x i8] c"\\f\00", align 1
@.str.340 = private unnamed_addr constant [3 x i8] c"\\r\00", align 1
@.str.527 = private unnamed_addr constant [3 x i8] c"\\'\00", align 1
@.str.528 = private unnamed_addr constant [3 x i8] c"\\\\\00", align 1
@.str.529 = private unnamed_addr constant [3 x i8] c"\\a\00", align 1
@.str.530 = private unnamed_addr constant [3 x i8] c"\\v\00", align 1
@.str.531 = private unnamed_addr constant [3 x i8] c"\\x\00", align 1
@.str.536 = private unnamed_addr constant [3 x i8] c"\\\22\00", align 1

; Function Attrs: mustprogress nounwind uwtable
define linkonce_odr dso_local noundef i64 @_ZNKSt8ios_base5widthEv(ptr noundef nonnull align 8 dereferenceable(216) %0) #7 comdat align 2 {
  %2 = alloca ptr, align 8
  store ptr %0, ptr %2, align 8, !tbaa !359
  %3 = load ptr, ptr %2, align 8
  %4 = getelementptr inbounds nuw %"class.std::ios_base", ptr %3, i32 0, i32 2
  %5 = load i64, ptr %4, align 8, !tbaa !1017
  ret i64 %5
}

; Function Attrs: inlinehint mustprogress nounwind uwtable
define linkonce_odr dso_local noundef i32 @_ZStorSt12_Ios_IostateS_(i32 noundef %0, i32 noundef %1) #5 comdat {
  %3 = alloca i32, align 4
  %4 = alloca i32, align 4
  store i32 %0, ptr %3, align 4, !tbaa !1539
  store i32 %1, ptr %4, align 4, !tbaa !1539
  %5 = load i32, ptr %3, align 4, !tbaa !1539
  %6 = load i32, ptr %4, align 4, !tbaa !1539
  %7 = or i32 %5, %6
  ret i32 %7
}

; Function Attrs: mustprogress nounwind uwtable
define available_externally noundef i32 @_ZNKSt9basic_iosIcSt11char_traitsIcEE7rdstateEv(ptr noundef nonnull align 8 dereferenceable(264) %0) #7 align 2 {
  %2 = alloca ptr, align 8
  store ptr %0, ptr %2, align 8, !tbaa !1537
  %3 = load ptr, ptr %2, align 8
  %4 = getelementptr inbounds nuw %"class.std::ios_base", ptr %3, i32 0, i32 5
  %5 = load i32, ptr %4, align 8, !tbaa !1540
  ret i32 %5
}

; Function Attrs: mustprogress nounwind uwtable
define linkonce_odr dso_local noundef i32 @_ZNSt8ios_base5flagsESt13_Ios_Fmtflags(ptr noundef nonnull align 8 dereferenceable(216) %0, i32 noundef %1) #7 comdat align 2 {
  %3 = alloca ptr, align 8
  %4 = alloca i32, align 4
  %5 = alloca i32, align 4
  store ptr %0, ptr %3, align 8, !tbaa !359
  store i32 %1, ptr %4, align 4, !tbaa !1026
  %6 = load ptr, ptr %3, align 8
  call void @llvm.lifetime.start.p0(i64 4, ptr %5) #3
  %7 = getelementptr inbounds nuw %"class.std::ios_base", ptr %6, i32 0, i32 3
  %8 = load i32, ptr %7, align 8, !tbaa !1027
  store i32 %8, ptr %5, align 4, !tbaa !1026
  %9 = load i32, ptr %4, align 4, !tbaa !1026
  %10 = getelementptr inbounds nuw %"class.std::ios_base", ptr %6, i32 0, i32 3
  store i32 %9, ptr %10, align 8, !tbaa !1027
  %11 = load i32, ptr %5, align 4, !tbaa !1026
  call void @llvm.lifetime.end.p0(i64 4, ptr %5) #3
  ret i32 %11
}

; Function Attrs: mustprogress uwtable
define available_externally noundef nonnull align 8 dereferenceable(8) ptr @_ZNSolsEPFRSt8ios_baseS0_E(ptr noundef nonnull align 8 dereferenceable(8) %0, ptr noundef %1) #4 align 2 {
  %3 = alloca ptr, align 8
  %4 = alloca ptr, align 8
  store ptr %0, ptr %3, align 8, !tbaa !187
  store ptr %1, ptr %4, align 8, !tbaa !29
  %5 = load ptr, ptr %3, align 8
  %6 = load ptr, ptr %4, align 8, !tbaa !29
  %7 = load ptr, ptr %5, align 8, !tbaa !50
  %8 = getelementptr i8, ptr %7, i64 -24
  %9 = load i64, ptr %8, align 8
  %10 = getelementptr inbounds i8, ptr %5, i64 %9
  %11 = call noundef nonnull align 8 dereferenceable(216) ptr %6(ptr noundef nonnull align 8 dereferenceable(216) %10)
  ret ptr %5
}

; Function Attrs: mustprogress nounwind uwtable
define linkonce_odr dso_local noundef i32 @_ZNKSt8ios_base5flagsEv(ptr noundef nonnull align 8 dereferenceable(216) %0) #7 comdat align 2 {
  %2 = alloca ptr, align 8
  store ptr %0, ptr %2, align 8, !tbaa !359
  %3 = load ptr, ptr %2, align 8
  %4 = getelementptr inbounds nuw %"class.std::ios_base", ptr %3, i32 0, i32 3
  %5 = load i32, ptr %4, align 8, !tbaa !1027
  ret i32 %5
}

; Function Attrs: inlinehint mustprogress uwtable
define available_externally noundef nonnull align 8 dereferenceable(8) ptr @_ZStlsISt11char_traitsIcEERSt13basic_ostreamIcT_ES5_c(ptr noundef nonnull align 8 dereferenceable(8) %0, i8 noundef signext %1) #11 {
  %3 = alloca ptr, align 8
  %4 = alloca ptr, align 8
  %5 = alloca i8, align 1
  store ptr %0, ptr %4, align 8, !tbaa !187
  store i8 %1, ptr %5, align 1, !tbaa !172
  %6 = load ptr, ptr %4, align 8, !tbaa !187
  %7 = load ptr, ptr %6, align 8, !tbaa !50
  %8 = getelementptr i8, ptr %7, i64 -24
  %9 = load i64, ptr %8, align 8
  %10 = getelementptr inbounds i8, ptr %6, i64 %9
  %11 = call noundef i64 @_ZNKSt8ios_base5widthEv(ptr noundef nonnull align 8 dereferenceable(216) %10)
  %12 = icmp ne i64 %11, 0
  br i1 %12, label %13, label %16

13:                                               ; preds = %2
  %14 = load ptr, ptr %4, align 8, !tbaa !187
  %15 = call noundef nonnull align 8 dereferenceable(8) ptr @_ZSt16__ostream_insertIcSt11char_traitsIcEERSt13basic_ostreamIT_T0_ES6_PKS3_l(ptr noundef nonnull align 8 dereferenceable(8) %14, ptr noundef %5, i64 noundef 1)
  store ptr %15, ptr %3, align 8
  br label %21

16:                                               ; preds = %2
  %17 = load ptr, ptr %4, align 8, !tbaa !187
  %18 = load i8, ptr %5, align 1, !tbaa !172
  %19 = call noundef nonnull align 8 dereferenceable(8) ptr @_ZNSo3putEc(ptr noundef nonnull align 8 dereferenceable(8) %17, i8 noundef signext %18)
  %20 = load ptr, ptr %4, align 8, !tbaa !187
  store ptr %20, ptr %3, align 8
  br label %21

21:                                               ; preds = %16, %13
  %22 = load ptr, ptr %3, align 8
  ret ptr %22
}

; Function Attrs: inlinehint mustprogress nounwind uwtable
define linkonce_odr dso_local noundef zeroext i1 @_ZN7testing8internal16IsPrintableAsciiEDi(i32 noundef zeroext %0) #5 comdat {
  %2 = alloca i32, align 4
  store i32 %0, ptr %2, align 4, !tbaa !353
  %3 = load i32, ptr %2, align 4, !tbaa !353
  %4 = icmp ule i32 32, %3
  br i1 %4, label %5, label %8

5:                                                ; preds = %1
  %6 = load i32, ptr %2, align 4, !tbaa !353
  %7 = icmp ule i32 %6, 126
  br label %8

8:                                                ; preds = %5, %1
  %9 = phi i1 [ false, %1 ], [ %7, %5 ]
  ret i1 %9
}

; Function Attrs: mustprogress nounwind uwtable
define internal noundef zeroext i32 @_ZN7testing12_GLOBAL__N_18ToChar32IDiEEDiT_(i32 noundef zeroext %0) #7 {
  %2 = alloca i32, align 4
  store i32 %0, ptr %2, align 4, !tbaa !353
  %3 = load i32, ptr %2, align 4, !tbaa !353
  ret i32 %3
}

; Function Attrs: mustprogress nounwind uwtable
define linkonce_odr dso_local noundef i64 @_ZNSt11char_traitsIcE6lengthEPKc(ptr noundef %0) #7 comdat align 2 {
  %2 = alloca ptr, align 8
  store ptr %0, ptr %2, align 8, !tbaa !32
  %3 = load ptr, ptr %2, align 8, !tbaa !32
  %4 = call i64 @strlen(ptr noundef %3) #3
  ret i64 %4
}

; Function Attrs: mustprogress uwtable
define available_externally void @_ZNSt9basic_iosIcSt11char_traitsIcEE8setstateESt12_Ios_Iostate(ptr noundef nonnull align 8 dereferenceable(264) %0, i32 noundef %1) #4 align 2 {
  %3 = alloca ptr, align 8
  %4 = alloca i32, align 4
  store ptr %0, ptr %3, align 8, !tbaa !1537
  store i32 %1, ptr %4, align 4, !tbaa !1539
  %5 = load ptr, ptr %3, align 8
  %6 = call noundef i32 @_ZNKSt9basic_iosIcSt11char_traitsIcEE7rdstateEv(ptr noundef nonnull align 8 dereferenceable(264) %5)
  %7 = load i32, ptr %4, align 4, !tbaa !1539
  %8 = call noundef i32 @_ZStorSt12_Ios_IostateS_(i32 noundef %6, i32 noundef %7)
  call void @_ZNSt9basic_iosIcSt11char_traitsIcEE5clearESt12_Ios_Iostate(ptr noundef nonnull align 8 dereferenceable(264) %5, i32 noundef %8)
  ret void
}

; Function Attrs: mustprogress uwtable
define internal noundef i32 @_ZN7testing8internalL20PrintAsCharLiteralToIDiEENS0_10CharFormatET_PSo(i32 noundef zeroext %0, ptr noundef %1) #4 {
  %3 = alloca i32, align 4
  %4 = alloca i32, align 4
  %5 = alloca ptr, align 8
  %6 = alloca i32, align 4
  %7 = alloca i32, align 4
  %8 = alloca i32, align 4
  store i32 %0, ptr %4, align 4, !tbaa !353
  store ptr %1, ptr %5, align 8, !tbaa !187
  call void @llvm.lifetime.start.p0(i64 4, ptr %6) #3
  %9 = load i32, ptr %4, align 4, !tbaa !353
  %10 = call noundef zeroext i32 @_ZN7testing12_GLOBAL__N_18ToChar32IDiEEDiT_(i32 noundef zeroext %9)
  store i32 %10, ptr %6, align 4, !tbaa !353
  %11 = load i32, ptr %6, align 4, !tbaa !353
  switch i32 %11, label %42 [
    i32 0, label %12
    i32 39, label %15
    i32 92, label %18
    i32 7, label %21
    i32 8, label %24
    i32 12, label %27
    i32 10, label %30
    i32 13, label %33
    i32 9, label %36
    i32 11, label %39
  ]

12:                                               ; preds = %2
  %13 = load ptr, ptr %5, align 8, !tbaa !187
  %14 = call noundef nonnull align 8 dereferenceable(8) ptr @_ZStlsISt11char_traitsIcEERSt13basic_ostreamIcT_ES5_PKc(ptr noundef nonnull align 8 dereferenceable(8) %13, ptr noundef @.str.190)
  br label %70

15:                                               ; preds = %2
  %16 = load ptr, ptr %5, align 8, !tbaa !187
  %17 = call noundef nonnull align 8 dereferenceable(8) ptr @_ZStlsISt11char_traitsIcEERSt13basic_ostreamIcT_ES5_PKc(ptr noundef nonnull align 8 dereferenceable(8) %16, ptr noundef @.str.527)
  br label %70

18:                                               ; preds = %2
  %19 = load ptr, ptr %5, align 8, !tbaa !187
  %20 = call noundef nonnull align 8 dereferenceable(8) ptr @_ZStlsISt11char_traitsIcEERSt13basic_ostreamIcT_ES5_PKc(ptr noundef nonnull align 8 dereferenceable(8) %19, ptr noundef @.str.528)
  br label %70

21:                                               ; preds = %2
  %22 = load ptr, ptr %5, align 8, !tbaa !187
  %23 = call noundef nonnull align 8 dereferenceable(8) ptr @_ZStlsISt11char_traitsIcEERSt13basic_ostreamIcT_ES5_PKc(ptr noundef nonnull align 8 dereferenceable(8) %22, ptr noundef @.str.529)
  br label %70

24:                                               ; preds = %2
  %25 = load ptr, ptr %5, align 8, !tbaa !187
  %26 = call noundef nonnull align 8 dereferenceable(8) ptr @_ZStlsISt11char_traitsIcEERSt13basic_ostreamIcT_ES5_PKc(ptr noundef nonnull align 8 dereferenceable(8) %25, ptr noundef @.str.336)
  br label %70

27:                                               ; preds = %2
  %28 = load ptr, ptr %5, align 8, !tbaa !187
  %29 = call noundef nonnull align 8 dereferenceable(8) ptr @_ZStlsISt11char_traitsIcEERSt13basic_ostreamIcT_ES5_PKc(ptr noundef nonnull align 8 dereferenceable(8) %28, ptr noundef @.str.339)
  br label %70

30:                                               ; preds = %2
  %31 = load ptr, ptr %5, align 8, !tbaa !187
  %32 = call noundef nonnull align 8 dereferenceable(8) ptr @_ZStlsISt11char_traitsIcEERSt13basic_ostreamIcT_ES5_PKc(ptr noundef nonnull align 8 dereferenceable(8) %31, ptr noundef @.str.338)
  br label %70

33:                                               ; preds = %2
  %34 = load ptr, ptr %5, align 8, !tbaa !187
  %35 = call noundef nonnull align 8 dereferenceable(8) ptr @_ZStlsISt11char_traitsIcEERSt13basic_ostreamIcT_ES5_PKc(ptr noundef nonnull align 8 dereferenceable(8) %34, ptr noundef @.str.340)
  br label %70

36:                                               ; preds = %2
  %37 = load ptr, ptr %5, align 8, !tbaa !187
  %38 = call noundef nonnull align 8 dereferenceable(8) ptr @_ZStlsISt11char_traitsIcEERSt13basic_ostreamIcT_ES5_PKc(ptr noundef nonnull align 8 dereferenceable(8) %37, ptr noundef @.str.337)
  br label %70

39:                                               ; preds = %2
  %40 = load ptr, ptr %5, align 8, !tbaa !187
  %41 = call noundef nonnull align 8 dereferenceable(8) ptr @_ZStlsISt11char_traitsIcEERSt13basic_ostreamIcT_ES5_PKc(ptr noundef nonnull align 8 dereferenceable(8) %40, ptr noundef @.str.530)
  br label %70

42:                                               ; preds = %2
  %43 = load i32, ptr %6, align 4, !tbaa !353
  %44 = call noundef zeroext i1 @_ZN7testing8internal16IsPrintableAsciiEDi(i32 noundef zeroext %43)
  br i1 %44, label %45, label %50

45:                                               ; preds = %42
  %46 = load ptr, ptr %5, align 8, !tbaa !187
  %47 = load i32, ptr %4, align 4, !tbaa !353
  %48 = trunc i32 %47 to i8
  %49 = call noundef nonnull align 8 dereferenceable(8) ptr @_ZStlsISt11char_traitsIcEERSt13basic_ostreamIcT_ES5_c(ptr noundef nonnull align 8 dereferenceable(8) %46, i8 noundef signext %48)
  store i32 0, ptr %3, align 4
  store i32 1, ptr %7, align 4
  br label %71

50:                                               ; preds = %42
  call void @llvm.lifetime.start.p0(i64 4, ptr %8) #3
  %51 = load ptr, ptr %5, align 8, !tbaa !187
  %52 = load ptr, ptr %51, align 8, !tbaa !50
  %53 = getelementptr i8, ptr %52, i64 -24
  %54 = load i64, ptr %53, align 8
  %55 = getelementptr inbounds i8, ptr %51, i64 %54
  %56 = call noundef i32 @_ZNKSt8ios_base5flagsEv(ptr noundef nonnull align 8 dereferenceable(216) %55)
  store i32 %56, ptr %8, align 4, !tbaa !1026
  %57 = load ptr, ptr %5, align 8, !tbaa !187
  %58 = call noundef nonnull align 8 dereferenceable(8) ptr @_ZStlsISt11char_traitsIcEERSt13basic_ostreamIcT_ES5_PKc(ptr noundef nonnull align 8 dereferenceable(8) %57, ptr noundef @.str.531)
  %59 = call noundef nonnull align 8 dereferenceable(8) ptr @_ZNSolsEPFRSt8ios_baseS0_E(ptr noundef nonnull align 8 dereferenceable(8) %58, ptr noundef @_ZSt3hexRSt8ios_base)
  %60 = call noundef nonnull align 8 dereferenceable(8) ptr @_ZNSolsEPFRSt8ios_baseS0_E(ptr noundef nonnull align 8 dereferenceable(8) %59, ptr noundef @_ZSt9uppercaseRSt8ios_base)
  %61 = load i32, ptr %6, align 4, !tbaa !353
  %62 = call noundef nonnull align 8 dereferenceable(8) ptr @_ZNSolsEi(ptr noundef nonnull align 8 dereferenceable(8) %60, i32 noundef %61)
  %63 = load ptr, ptr %5, align 8, !tbaa !187
  %64 = load ptr, ptr %63, align 8, !tbaa !50
  %65 = getelementptr i8, ptr %64, i64 -24
  %66 = load i64, ptr %65, align 8
  %67 = getelementptr inbounds i8, ptr %63, i64 %66
  %68 = load i32, ptr %8, align 4, !tbaa !1026
  %69 = call noundef i32 @_ZNSt8ios_base5flagsESt13_Ios_Fmtflags(ptr noundef nonnull align 8 dereferenceable(216) %67, i32 noundef %68)
  store i32 1, ptr %3, align 4
  store i32 1, ptr %7, align 4
  call void @llvm.lifetime.end.p0(i64 4, ptr %8) #3
  br label %71

70:                                               ; preds = %39, %36, %33, %30, %27, %24, %21, %18, %15, %12
  store i32 2, ptr %3, align 4
  store i32 1, ptr %7, align 4
  br label %71

71:                                               ; preds = %70, %50, %45
  call void @llvm.lifetime.end.p0(i64 4, ptr %6) #3
  %72 = load i32, ptr %3, align 4
  ret i32 %72
}

; Function Attrs: inlinehint mustprogress uwtable
define available_externally noundef nonnull align 8 dereferenceable(8) ptr @_ZStlsISt11char_traitsIcEERSt13basic_ostreamIcT_ES5_PKc(ptr noundef nonnull align 8 dereferenceable(8) %0, ptr noundef %1) #11 {
  %3 = alloca ptr, align 8
  %4 = alloca ptr, align 8
  store ptr %0, ptr %3, align 8, !tbaa !187
  store ptr %1, ptr %4, align 8, !tbaa !32
  %5 = load ptr, ptr %4, align 8, !tbaa !32
  %6 = icmp ne ptr %5, null
  br i1 %6, label %13, label %7

7:                                                ; preds = %2
  %8 = load ptr, ptr %3, align 8, !tbaa !187
  %9 = load ptr, ptr %8, align 8, !tbaa !50
  %10 = getelementptr i8, ptr %9, i64 -24
  %11 = load i64, ptr %10, align 8
  %12 = getelementptr inbounds i8, ptr %8, i64 %11
  call void @_ZNSt9basic_iosIcSt11char_traitsIcEE8setstateESt12_Ios_Iostate(ptr noundef nonnull align 8 dereferenceable(264) %12, i32 noundef 1)
  br label %19

13:                                               ; preds = %2
  %14 = load ptr, ptr %3, align 8, !tbaa !187
  %15 = load ptr, ptr %4, align 8, !tbaa !32
  %16 = load ptr, ptr %4, align 8, !tbaa !32
  %17 = call noundef i64 @_ZNSt11char_traitsIcE6lengthEPKc(ptr noundef %16)
  %18 = call noundef nonnull align 8 dereferenceable(8) ptr @_ZSt16__ostream_insertIcSt11char_traitsIcEERSt13basic_ostreamIT_T0_ES6_PKS3_l(ptr noundef nonnull align 8 dereferenceable(8) %14, ptr noundef %15, i64 noundef %17)
  br label %19

19:                                               ; preds = %13, %7
  %20 = load ptr, ptr %3, align 8, !tbaa !187
  ret ptr %20
}

; Function Attrs: mustprogress uwtable
define internal noundef i32 @_ZN7testing8internalL22PrintAsStringLiteralToEDiPSo(i32 noundef zeroext %0, ptr noundef %1) #4 {
  %3 = alloca i32, align 4
  %4 = alloca i32, align 4
  %5 = alloca ptr, align 8
  store i32 %0, ptr %4, align 4, !tbaa !353
  store ptr %1, ptr %5, align 8, !tbaa !187
  %6 = load i32, ptr %4, align 4, !tbaa !353
  switch i32 %6, label %13 [
    i32 39, label %7
    i32 34, label %10
  ]

7:                                                ; preds = %2
  %8 = load ptr, ptr %5, align 8, !tbaa !187
  %9 = call noundef nonnull align 8 dereferenceable(8) ptr @_ZStlsISt11char_traitsIcEERSt13basic_ostreamIcT_ES5_PKc(ptr noundef nonnull align 8 dereferenceable(8) %8, ptr noundef @.str.151)
  store i32 0, ptr %3, align 4
  br label %17

10:                                               ; preds = %2
  %11 = load ptr, ptr %5, align 8, !tbaa !187
  %12 = call noundef nonnull align 8 dereferenceable(8) ptr @_ZStlsISt11char_traitsIcEERSt13basic_ostreamIcT_ES5_PKc(ptr noundef nonnull align 8 dereferenceable(8) %11, ptr noundef @.str.536)
  store i32 2, ptr %3, align 4
  br label %17

13:                                               ; preds = %2
  %14 = load i32, ptr %4, align 4, !tbaa !353
  %15 = load ptr, ptr %5, align 8, !tbaa !187
  %16 = call noundef i32 @_ZN7testing8internalL20PrintAsCharLiteralToIDiEENS0_10CharFormatET_PSo(i32 noundef zeroext %14, ptr noundef %15)
  store i32 %16, ptr %3, align 4
  br label %17

17:                                               ; preds = %13, %10, %7
  %18 = load i32, ptr %3, align 4
  ret i32 %18
}